; ModuleID = '64/1159.c'
source_filename = "64/1159.c"
target datalayout = "e-m:e-p270:32:32-p271:32:32-p272:64:64-i64:64-f80:128-n8:16:32:64-S128"
target triple = "x86_64-pc-linux-gnu"

@.str = private unnamed_addr constant [3 x i8] c"%d\00", align 1
@.str.1 = private unnamed_addr constant [29 x i8] c"(%d,%d,%d)-(%d,%d,%d)=%.2lf\0A\00", align 1

; Function Attrs: noinline nounwind uwtable
define dso_local i32 @main() #0 {
  %1 = alloca i32, align 4
  %2 = alloca i32, align 4
  %3 = alloca i32, align 4
  %4 = alloca i32, align 4
  %5 = alloca i32, align 4
  %6 = alloca i32, align 4
  %7 = alloca [10 x [3 x i32]], align 16
  %8 = alloca i32, align 4
  %9 = alloca i32, align 4
  %10 = alloca [10 x [10 x double]], align 16
  %11 = alloca double, align 8
  store i32 0, i32* %1, align 4
  %12 = call i32 (i8*, ...) @__isoc99_scanf(i8* getelementptr inbounds ([3 x i8], [3 x i8]* @.str, i64 0, i64 0), i32* %2)
  store i32 0, i32* %3, align 4
  br label %13

13:                                               ; preds = %33, %0
  %14 = load i32, i32* %3, align 4
  %15 = load i32, i32* %2, align 4
  %16 = icmp slt i32 %14, %15
  br i1 %16, label %17, label %36

17:                                               ; preds = %13
  store i32 0, i32* %4, align 4
  br label %18

18:                                               ; preds = %29, %17
  %19 = load i32, i32* %4, align 4
  %20 = icmp slt i32 %19, 3
  br i1 %20, label %21, label %32

21:                                               ; preds = %18
  %22 = load i32, i32* %3, align 4
  %23 = sext i32 %22 to i64
  %24 = getelementptr inbounds [10 x [3 x i32]], [10 x [3 x i32]]* %7, i64 0, i64 %23
  %25 = load i32, i32* %4, align 4
  %26 = sext i32 %25 to i64
  %27 = getelementptr inbounds [3 x i32], [3 x i32]* %24, i64 0, i64 %26
  %28 = call i32 (i8*, ...) @__isoc99_scanf(i8* getelementptr inbounds ([3 x i8], [3 x i8]* @.str, i64 0, i64 0), i32* %27)
  br label %29

29:                                               ; preds = %21
  %30 = load i32, i32* %4, align 4
  %31 = add nsw i32 %30, 1
  store i32 %31, i32* %4, align 4
  br label %18

32:                                               ; preds = %18
  br label %33

33:                                               ; preds = %32
  %34 = load i32, i32* %3, align 4
  %35 = add nsw i32 %34, 1
  store i32 %35, i32* %3, align 4
  br label %13

36:                                               ; preds = %13
  store i32 0, i32* %3, align 4
  br label %37

37:                                               ; preds = %102, %36
  %38 = load i32, i32* %3, align 4
  %39 = load i32, i32* %2, align 4
  %40 = sub nsw i32 %39, 1
  %41 = icmp slt i32 %38, %40
  br i1 %41, label %42, label %105

42:                                               ; preds = %37
  %43 = load i32, i32* %3, align 4
  %44 = add nsw i32 %43, 1
  store i32 %44, i32* %4, align 4
  br label %45

45:                                               ; preds = %98, %42
  %46 = load i32, i32* %4, align 4
  %47 = load i32, i32* %2, align 4
  %48 = icmp slt i32 %46, %47
  br i1 %48, label %49, label %101

49:                                               ; preds = %45
  %50 = load i32, i32* %3, align 4
  %51 = sext i32 %50 to i64
  %52 = getelementptr inbounds [10 x [3 x i32]], [10 x [3 x i32]]* %7, i64 0, i64 %51
  %53 = getelementptr inbounds [3 x i32], [3 x i32]* %52, i64 0, i64 0
  %54 = load i32, i32* %53, align 4
  %55 = load i32, i32* %4, align 4
  %56 = sext i32 %55 to i64
  %57 = getelementptr inbounds [10 x [3 x i32]], [10 x [3 x i32]]* %7, i64 0, i64 %56
  %58 = getelementptr inbounds [3 x i32], [3 x i32]* %57, i64 0, i64 0
  %59 = load i32, i32* %58, align 4
  %60 = sub nsw i32 %54, %59
  %61 = sitofp i32 %60 to double
  %62 = call double @pow(double %61, double 2.000000e+00) #3
  %63 = load i32, i32* %3, align 4
  %64 = sext i32 %63 to i64
  %65 = getelementptr inbounds [10 x [3 x i32]], [10 x [3 x i32]]* %7, i64 0, i64 %64
  %66 = getelementptr inbounds [3 x i32], [3 x i32]* %65, i64 0, i64 2
  %67 = load i32, i32* %66, align 4
  %68 = load i32, i32* %4, align 4
  %69 = sext i32 %68 to i64
  %70 = getelementptr inbounds [10 x [3 x i32]], [10 x [3 x i32]]* %7, i64 0, i64 %69
  %71 = getelementptr inbounds [3 x i32], [3 x i32]* %70, i64 0, i64 2
  %72 = load i32, i32* %71, align 4
  %73 = sub nsw i32 %67, %72
  %74 = sitofp i32 %73 to double
  %75 = call double @pow(double %74, double 2.000000e+00) #3
  %76 = fadd double %62, %75
  %77 = load i32, i32* %3, align 4
  %78 = sext i32 %77 to i64
  %79 = getelementptr inbounds [10 x [3 x i32]], [10 x [3 x i32]]* %7, i64 0, i64 %78
  %80 = getelementptr inbounds [3 x i32], [3 x i32]* %79, i64 0, i64 1
  %81 = load i32, i32* %80, align 4
  %82 = load i32, i32* %4, align 4
  %83 = sext i32 %82 to i64
  %84 = getelementptr inbounds [10 x [3 x i32]], [10 x [3 x i32]]* %7, i64 0, i64 %83
  %85 = getelementptr inbounds [3 x i32], [3 x i32]* %84, i64 0, i64 1
  %86 = load i32, i32* %85, align 4
  %87 = sub nsw i32 %81, %86
  %88 = sitofp i32 %87 to double
  %89 = call double @pow(double %88, double 2.000000e+00) #3
  %90 = fadd double %76, %89
  %91 = call double @sqrt(double %90) #3
  %92 = load i32, i32* %3, align 4
  %93 = sext i32 %92 to i64
  %94 = getelementptr inbounds [10 x [10 x double]], [10 x [10 x double]]* %10, i64 0, i64 %93
  %95 = load i32, i32* %4, align 4
  %96 = sext i32 %95 to i64
  %97 = getelementptr inbounds [10 x double], [10 x double]* %94, i64 0, i64 %96
  store double %91, double* %97, align 8
  br label %98

98:                                               ; preds = %49
  %99 = load i32, i32* %4, align 4
  %100 = add nsw i32 %99, 1
  store i32 %100, i32* %4, align 4
  br label %45

101:                                              ; preds = %45
  br label %102

102:                                              ; preds = %101
  %103 = load i32, i32* %3, align 4
  %104 = add nsw i32 %103, 1
  store i32 %104, i32* %3, align 4
  br label %37

105:                                              ; preds = %37
  store double 0.000000e+00, double* %11, align 8
  %106 = load i32, i32* %2, align 4
  %107 = load i32, i32* %2, align 4
  %108 = mul nsw i32 %106, %107
  %109 = load i32, i32* %2, align 4
  %110 = sub nsw i32 %108, %109
  %111 = sdiv i32 %110, 2
  store i32 %111, i32* %9, align 4
  store i32 1, i32* %8, align 4
  br label %112

112:                                              ; preds = %195, %105
  %113 = load i32, i32* %8, align 4
  %114 = load i32, i32* %9, align 4
  %115 = icmp sle i32 %113, %114
  br i1 %115, label %116, label %198

116:                                              ; preds = %112
  store i32 0, i32* %3, align 4
  br label %117

117:                                              ; preds = %153, %116
  %118 = load i32, i32* %3, align 4
  %119 = load i32, i32* %2, align 4
  %120 = icmp slt i32 %118, %119
  br i1 %120, label %121, label %156

121:                                              ; preds = %117
  %122 = load i32, i32* %3, align 4
  %123 = add nsw i32 %122, 1
  store i32 %123, i32* %4, align 4
  br label %124

124:                                              ; preds = %149, %121
  %125 = load i32, i32* %4, align 4
  %126 = load i32, i32* %2, align 4
  %127 = icmp slt i32 %125, %126
  br i1 %127, label %128, label %152

128:                                              ; preds = %124
  %129 = load double, double* %11, align 8
  %130 = load i32, i32* %3, align 4
  %131 = sext i32 %130 to i64
  %132 = getelementptr inbounds [10 x [10 x double]], [10 x [10 x double]]* %10, i64 0, i64 %131
  %133 = load i32, i32* %4, align 4
  %134 = sext i32 %133 to i64
  %135 = getelementptr inbounds [10 x double], [10 x double]* %132, i64 0, i64 %134
  %136 = load double, double* %135, align 8
  %137 = fcmp olt double %129, %136
  br i1 %137, label %138, label %148

138:                                              ; preds = %128
  %139 = load i32, i32* %3, align 4
  %140 = sext i32 %139 to i64
  %141 = getelementptr inbounds [10 x [10 x double]], [10 x [10 x double]]* %10, i64 0, i64 %140
  %142 = load i32, i32* %4, align 4
  %143 = sext i32 %142 to i64
  %144 = getelementptr inbounds [10 x double], [10 x double]* %141, i64 0, i64 %143
  %145 = load double, double* %144, align 8
  store double %145, double* %11, align 8
  %146 = load i32, i32* %3, align 4
  store i32 %146, i32* %5, align 4
  %147 = load i32, i32* %4, align 4
  store i32 %147, i32* %6, align 4
  br label %148

148:                                              ; preds = %138, %128
  br label %149

149:                                              ; preds = %148
  %150 = load i32, i32* %4, align 4
  %151 = add nsw i32 %150, 1
  store i32 %151, i32* %4, align 4
  br label %124

152:                                              ; preds = %124
  br label %153

153:                                              ; preds = %152
  %154 = load i32, i32* %3, align 4
  %155 = add nsw i32 %154, 1
  store i32 %155, i32* %3, align 4
  br label %117

156:                                              ; preds = %117
  %157 = load i32, i32* %5, align 4
  %158 = sext i32 %157 to i64
  %159 = getelementptr inbounds [10 x [3 x i32]], [10 x [3 x i32]]* %7, i64 0, i64 %158
  %160 = getelementptr inbounds [3 x i32], [3 x i32]* %159, i64 0, i64 0
  %161 = load i32, i32* %160, align 4
  %162 = load i32, i32* %5, align 4
  %163 = sext i32 %162 to i64
  %164 = getelementptr inbounds [10 x [3 x i32]], [10 x [3 x i32]]* %7, i64 0, i64 %163
  %165 = getelementptr inbounds [3 x i32], [3 x i32]* %164, i64 0, i64 1
  %166 = load i32, i32* %165, align 4
  %167 = load i32, i32* %5, align 4
  %168 = sext i32 %167 to i64
  %169 = getelementptr inbounds [10 x [3 x i32]], [10 x [3 x i32]]* %7, i64 0, i64 %168
  %170 = getelementptr inbounds [3 x i32], [3 x i32]* %169, i64 0, i64 2
  %171 = load i32, i32* %170, align 4
  %172 = load i32, i32* %6, align 4
  %173 = sext i32 %172 to i64
  %174 = getelementptr inbounds [10 x [3 x i32]], [10 x [3 x i32]]* %7, i64 0, i64 %173
  %175 = getelementptr inbounds [3 x i32], [3 x i32]* %174, i64 0, i64 0
  %176 = load i32, i32* %175, align 4
  %177 = load i32, i32* %6, align 4
  %178 = sext i32 %177 to i64
  %179 = getelementptr inbounds [10 x [3 x i32]], [10 x [3 x i32]]* %7, i64 0, i64 %178
  %180 = getelementptr inbounds [3 x i32], [3 x i32]* %179, i64 0, i64 1
  %181 = load i32, i32* %180, align 4
  %182 = load i32, i32* %6, align 4
  %183 = sext i32 %182 to i64
  %184 = getelementptr inbounds [10 x [3 x i32]], [10 x [3 x i32]]* %7, i64 0, i64 %183
  %185 = getelementptr inbounds [3 x i32], [3 x i32]* %184, i64 0, i64 2
  %186 = load i32, i32* %185, align 4
  %187 = load double, double* %11, align 8
  %188 = call i32 (i8*, ...) @printf(i8* getelementptr inbounds ([29 x i8], [29 x i8]* @.str.1, i64 0, i64 0), i32 %161, i32 %166, i32 %171, i32 %176, i32 %181, i32 %186, double %187)
  store double 0.000000e+00, double* %11, align 8
  %189 = load i32, i32* %5, align 4
  %190 = sext i32 %189 to i64
  %191 = getelementptr inbounds [10 x [10 x double]], [10 x [10 x double]]* %10, i64 0, i64 %190
  %192 = load i32, i32* %6, align 4
  %193 = sext i32 %192 to i64
  %194 = getelementptr inbounds [10 x double], [10 x double]* %191, i64 0, i64 %193
  store double 0.000000e+00, double* %194, align 8
  store i32 0, i32* %5, align 4
  store i32 0, i32* %6, align 4
  br label %195

195:                                              ; preds = %156
  %196 = load i32, i32* %8, align 4
  %197 = add nsw i32 %196, 1
  store i32 %197, i32* %8, align 4
  br label %112

198:                                              ; preds = %112
  ret i32 0
}

declare dso_local i32 @__isoc99_scanf(i8*, ...) #1

; Function Attrs: nounwind
declare dso_local double @sqrt(double) #2

; Function Attrs: nounwind
declare dso_local double @pow(double, double) #2

declare dso_local i32 @printf(i8*, ...) #1


!llvm.module.flags = !{!0}
!llvm.ident = !{!1}

!0 = !{i32 1, !"wchar_size", i32 4}
!1 = !{!"clang version 10.0.0-4ubuntu1 "}
